target datalayout = "e-m:e-p270:32:32-p271:32:32-p272:64:64-i64:64-i128:128-f80:128-n8:16:32:64-S128"
target triple = "x86_64-pc-linux-gnu"

@hf_infiniband_smp_data = internal global i32 0, align 4
@hf_infiniband_LinkSpeedWidthPairsTable_NumTables = internal global i32 0, align 4
@hf_infiniband_LinkSpeedWidthPairsTable_PortMask = internal global i32 0, align 4
@hf_infiniband_LinkSpeedWidthPairsTable_SpeedTwoFive = internal global i32 0, align 4
@hf_infiniband_LinkSpeedWidthPairsTable_SpeedFive = internal global i32 0, align 4
@hf_infiniband_LinkSpeedWidthPairsTable_SpeedTen = internal global i32 0, align 4
@ett_linkspeedwidthpairs = internal global i32 0, align 4
@.str.1230 = private unnamed_addr constant [3 x i8] c"%s\00", align 1
@.str.1483 = private unnamed_addr constant [25 x i8] c"LinkSpeedWidthPairsTable\00", align 1

; Function Attrs: null_pointer_is_valid sspstrong uwtable
define internal i32 @parse_LinkSpeedWidthPairsTable(ptr noundef %0, ptr noundef %1, ptr noundef %2) #0 {
  %4 = alloca i32, align 4
  %5 = alloca ptr, align 8
  %6 = alloca ptr, align 8
  %7 = alloca ptr, align 8
  %8 = alloca i32, align 4
  %9 = alloca ptr, align 8
  %10 = alloca ptr, align 8
  %11 = alloca i32, align 4
  store ptr %0, ptr %5, align 8
  store ptr %1, ptr %6, align 8
  store ptr %2, ptr %7, align 8
  call void @llvm.lifetime.start.p0(i64 4, ptr %8) #18
  %12 = load ptr, ptr %7, align 8
  %13 = load i32, ptr %12, align 4
  store i32 %13, ptr %8, align 4
  call void @llvm.lifetime.start.p0(i64 8, ptr %9) #18
  call void @llvm.lifetime.start.p0(i64 8, ptr %10) #18
  %14 = load ptr, ptr %5, align 8
  %15 = icmp ne ptr %14, null
  br i1 %15, label %19, label %16

16:                                               ; preds = %3
  %17 = load ptr, ptr %7, align 8
  %18 = load i32, ptr %17, align 4
  store i32 %18, ptr %4, align 4
  store i32 1, ptr %11, align 4
  br label %65

19:                                               ; preds = %3
  %20 = load ptr, ptr %5, align 8
  %21 = load i32, ptr @hf_infiniband_smp_data, align 4
  %22 = load ptr, ptr %6, align 8
  %23 = load i32, ptr %8, align 4
  %24 = call ptr @proto_tree_add_item(ptr noundef %20, i32 noundef %21, ptr noundef %22, i32 noundef %23, i32 noundef 64, i32 noundef 0)
  store ptr %24, ptr %9, align 8
  %25 = load ptr, ptr %9, align 8
  call void (ptr, ptr, ...) @proto_item_set_text(ptr noundef %25, ptr noundef @.str.1230, ptr noundef @.str.1483)
  %26 = load ptr, ptr %9, align 8
  %27 = load i32, ptr @ett_linkspeedwidthpairs, align 4
  %28 = call ptr @proto_item_add_subtree(ptr noundef %26, i32 noundef %27)
  store ptr %28, ptr %10, align 8
  %29 = load ptr, ptr %10, align 8
  %30 = load i32, ptr @hf_infiniband_LinkSpeedWidthPairsTable_NumTables, align 4
  %31 = load ptr, ptr %6, align 8
  %32 = load i32, ptr %8, align 4
  %33 = call ptr @proto_tree_add_item(ptr noundef %29, i32 noundef %30, ptr noundef %31, i32 noundef %32, i32 noundef 1, i32 noundef 0)
  %34 = load i32, ptr %8, align 4
  %35 = add i32 %34, 1
  store i32 %35, ptr %8, align 4
  %36 = load ptr, ptr %10, align 8
  %37 = load i32, ptr @hf_infiniband_LinkSpeedWidthPairsTable_PortMask, align 4
  %38 = load ptr, ptr %6, align 8
  %39 = load i32, ptr %8, align 4
  %40 = call ptr @proto_tree_add_item(ptr noundef %36, i32 noundef %37, ptr noundef %38, i32 noundef %39, i32 noundef 32, i32 noundef 0)
  %41 = load i32, ptr %8, align 4
  %42 = add i32 %41, 32
  store i32 %42, ptr %8, align 4
  %43 = load ptr, ptr %10, align 8
  %44 = load i32, ptr @hf_infiniband_LinkSpeedWidthPairsTable_SpeedTwoFive, align 4
  %45 = load ptr, ptr %6, align 8
  %46 = load i32, ptr %8, align 4
  %47 = call ptr @proto_tree_add_item(ptr noundef %43, i32 noundef %44, ptr noundef %45, i32 noundef %46, i32 noundef 1, i32 noundef 0)
  %48 = load i32, ptr %8, align 4
  %49 = add i32 %48, 1
  store i32 %49, ptr %8, align 4
  %50 = load ptr, ptr %10, align 8
  %51 = load i32, ptr @hf_infiniband_LinkSpeedWidthPairsTable_SpeedFive, align 4
  %52 = load ptr, ptr %6, align 8
  %53 = load i32, ptr %8, align 4
  %54 = call ptr @proto_tree_add_item(ptr noundef %50, i32 noundef %51, ptr noundef %52, i32 noundef %53, i32 noundef 1, i32 noundef 0)
  %55 = load i32, ptr %8, align 4
  %56 = add i32 %55, 1
  store i32 %56, ptr %8, align 4
  %57 = load ptr, ptr %10, align 8
  %58 = load i32, ptr @hf_infiniband_LinkSpeedWidthPairsTable_SpeedTen, align 4
  %59 = load ptr, ptr %6, align 8
  %60 = load i32, ptr %8, align 4
  %61 = call ptr @proto_tree_add_item(ptr noundef %57, i32 noundef %58, ptr noundef %59, i32 noundef %60, i32 noundef 1, i32 noundef 0)
  %62 = load i32, ptr %8, align 4
  %63 = add i32 %62, 1
  store i32 %63, ptr %8, align 4
  %64 = load i32, ptr %8, align 4
  store i32 %64, ptr %4, align 4
  store i32 1, ptr %11, align 4
  br label %65

65:                                               ; preds = %19, %16
  call void @llvm.lifetime.end.p0(i64 8, ptr %10) #18
  call void @llvm.lifetime.end.p0(i64 8, ptr %9) #18
  call void @llvm.lifetime.end.p0(i64 4, ptr %8) #18
  %66 = load i32, ptr %4, align 4
  ret i32 %66
}